; Function Attrs: mustprogress uwtable
define void @_ZNK4cvc56parser22DeclareSygusVarCommand8toStreamERSo(ptr noundef nonnull align 8 dereferenceable(72) %0, ptr noundef nonnull align 8 dereferenceable(8) %1) unnamed_addr #3 align 2 personality ptr @__gxx_personality_v0 {
  %3 = alloca %"class.cvc5::internal::TypeNode", align 8
  %4 = tail call noundef ptr @_ZN4cvc58internal7Printer10getPrinterERSo(ptr noundef nonnull align 8 dereferenceable(8) %1)
  %5 = getelementptr inbounds nuw i8, ptr %0, i64 16
  %6 = getelementptr inbounds nuw i8, ptr %0, i64 48
  tail call void @llvm.experimental.noalias.scope.decl(metadata !136)
  %7 = tail call noundef nonnull align 8 dereferenceable(8) ptr @_ZNK4cvc54Sort11getTypeNodeEv(ptr noundef nonnull align 8 dereferenceable(24) %6), !noalias !136
  %8 = load ptr, ptr %7, align 8, !tbaa !68, !noalias !136
  store ptr %8, ptr %3, align 8, !tbaa !68, !alias.scope !136
  %9 = load i64, ptr %8, align 8, !noalias !136
  %10 = lshr i64 %9, 40
  %11 = trunc nuw nsw i64 %10 to i32
  %12 = and i32 %11, 1048575
  %13 = icmp samesign ult i32 %12, 1048574
  br i1 %13, label %14, label %19, !prof !67

14:                                               ; preds = %2
  %15 = add i64 %9, 1099511627776
  %16 = and i64 %15, 1152920405095219200
  %17 = and i64 %9, -1152920405095219201
  %18 = or disjoint i64 %16, %17
  store i64 %18, ptr %8, align 8, !noalias !136
  br label %_ZN4cvc56parser3Cmd14sortToTypeNodeERKNS_4SortE.exit

19:                                               ; preds = %2
  %20 = icmp eq i32 %12, 1048574
  br i1 %20, label %21, label %_ZN4cvc56parser3Cmd14sortToTypeNodeERKNS_4SortE.exit, !prof !32

21:                                               ; preds = %19
  %22 = or i64 %9, 1152920405095219200
  store i64 %22, ptr %8, align 8, !noalias !136
  tail call void @_ZN4cvc58internal4expr9NodeValue20markRefCountMaxedOutEv(ptr noundef nonnull align 8 dereferenceable(24) %8), !noalias !136
  br label %_ZN4cvc56parser3Cmd14sortToTypeNodeERKNS_4SortE.exit

_ZN4cvc56parser3Cmd14sortToTypeNodeERKNS_4SortE.exit: ; preds = %14, %19, %21
  %23 = load ptr, ptr %4, align 8, !tbaa !6
  %24 = getelementptr inbounds nuw i8, ptr %23, i64 232
  %25 = load ptr, ptr %24, align 8
  invoke void %25(ptr noundef nonnull align 8 dereferenceable(8) %4, ptr noundef nonnull align 8 dereferenceable(8) %1, ptr noundef nonnull align 8 dereferenceable(32) %5, ptr noundef nonnull %3)
          to label %26 unwind label %40

26:                                               ; preds = %_ZN4cvc56parser3Cmd14sortToTypeNodeERKNS_4SortE.exit
  %27 = load ptr, ptr %3, align 8, !tbaa !68
  %28 = load i64, ptr %27, align 8
  %29 = and i64 %28, 1152920405095219200
  %.not.i.i = icmp eq i64 %29, 1152920405095219200
  br i1 %.not.i.i, label %_ZN4cvc58internal8TypeNodeD2Ev.exit, label %30, !prof !32

30:                                               ; preds = %26
  %31 = add i64 %28, 1152920405095219200
  %32 = and i64 %31, 1152920405095219200
  %33 = and i64 %28, -1152920405095219201
  %34 = or disjoint i64 %32, %33
  store i64 %34, ptr %27, align 8
  %35 = icmp eq i64 %32, 0
  br i1 %35, label %36, label %_ZN4cvc58internal8TypeNodeD2Ev.exit, !prof !32

36:                                               ; preds = %30
  invoke void @_ZN4cvc58internal4expr9NodeValue15markForDeletionEv(ptr noundef nonnull align 8 dereferenceable(24) %27)
          to label %_ZN4cvc58internal8TypeNodeD2Ev.exit unwind label %37

37:                                               ; preds = %36
  %38 = landingpad { ptr, i32 }
          catch ptr null
  %39 = extractvalue { ptr, i32 } %38, 0
  call void @__clang_call_terminate(ptr %39) #35
  unreachable

_ZN4cvc58internal8TypeNodeD2Ev.exit:              ; preds = %26, %30, %36
  ret void

40:                                               ; preds = %_ZN4cvc56parser3Cmd14sortToTypeNodeERKNS_4SortE.exit
  %41 = landingpad { ptr, i32 }
          cleanup
  call void @_ZN4cvc58internal8TypeNodeD2Ev(ptr noundef nonnull align 8 dereferenceable(8) %3) #33
  resume { ptr, i32 } %41
}